; Function Attrs: nofree norecurse nosync nounwind memory(readwrite, inaccessiblemem: none) uwtable
define noundef i32 @cli_hashset_removekey(ptr nocapture noundef %0, i32 noundef %1) local_unnamed_addr #8 {
  %3 = xor i32 %1, -1
  %4 = shl i32 %1, 15
  %5 = add i32 %4, %3
  %6 = lshr i32 %5, 12
  %7 = xor i32 %6, %5
  %8 = mul i32 %7, 5
  %9 = lshr i32 %8, 4
  %10 = xor i32 %9, %8
  %11 = mul i32 %10, 2057
  %12 = lshr i32 %11, 16
  %13 = xor i32 %12, %11
  %14 = getelementptr inbounds i8, ptr %0, i64 28
  %15 = load i32, ptr %14, align 4
  %16 = and i32 %15, %13
  %17 = zext i32 %16 to i64
  %18 = getelementptr inbounds i8, ptr %0, i64 8
  %19 = load ptr, ptr %18, align 8
  %20 = lshr i64 %17, 5
  %21 = getelementptr inbounds i32, ptr %19, i64 %20
  %22 = load i32, ptr %21, align 4
  %23 = zext i32 %22 to i64
  %24 = and i64 %17, 31
  %25 = shl nuw nsw i64 1, %24
  %26 = and i64 %25, %23
  %.not13.i = icmp eq i64 %26, 0
  br i1 %.not13.i, label %cli_hashset_search.exit.thread, label %.lr.ph.i

.lr.ph.i:                                         ; preds = %2
  %27 = load ptr, ptr %0, align 8
  %28 = zext i32 %15 to i64
  br label %29

29:                                               ; preds = %32, %.lr.ph.i
  %.015.i = phi i64 [ 1, %.lr.ph.i ], [ %33, %32 ]
  %.01114.i = phi i64 [ %17, %.lr.ph.i ], [ %35, %32 ]
  %30 = getelementptr inbounds i32, ptr %27, i64 %.01114.i
  %31 = load i32, ptr %30, align 4
  %.not12.i = icmp eq i32 %31, %1
  br i1 %.not12.i, label %.cli_hashset_search.exit.loopexit_crit_edge, label %32

.cli_hashset_search.exit.loopexit_crit_edge:      ; preds = %29
  %.pre20 = lshr i64 %.01114.i, 5
  %.pre = and i64 %.01114.i, 31
  %.pre21 = shl nuw nsw i64 1, %.pre
  br label %cli_hashset_search.exit

32:                                               ; preds = %29
  %33 = add i64 %.015.i, 1
  %34 = add i64 %.01114.i, %.015.i
  %35 = and i64 %34, %28
  %36 = lshr i64 %35, 5
  %37 = getelementptr inbounds i32, ptr %19, i64 %36
  %38 = load i32, ptr %37, align 4
  %39 = zext i32 %38 to i64
  %40 = and i64 %35, 31
  %41 = shl nuw nsw i64 1, %40
  %42 = and i64 %41, %39
  %.not.i = icmp eq i64 %42, 0
  br i1 %.not.i, label %cli_hashset_search.exit, label %29

cli_hashset_search.exit:                          ; preds = %32, %.cli_hashset_search.exit.loopexit_crit_edge
  %.pre16.pre-phi = phi i64 [ %.pre21, %.cli_hashset_search.exit.loopexit_crit_edge ], [ %41, %32 ]
  %.pre.pre-phi = phi i64 [ %.pre20, %.cli_hashset_search.exit.loopexit_crit_edge ], [ %36, %32 ]
  %.011.lcssa.i.ph = phi i64 [ %.01114.i, %.cli_hashset_search.exit.loopexit_crit_edge ], [ %35, %32 ]
  %.phi.trans.insert = getelementptr inbounds i32, ptr %19, i64 %.pre.pre-phi
  %.pre11 = load i32, ptr %.phi.trans.insert, align 4
  %.pre12 = zext i32 %.pre11 to i64
  %.pre18 = and i64 %.pre16.pre-phi, %.pre12
  %43 = icmp eq i64 %.pre18, 0
  br i1 %43, label %cli_hashset_search.exit.thread, label %44

44:                                               ; preds = %cli_hashset_search.exit
  %45 = getelementptr inbounds i32, ptr %19, i64 %.pre.pre-phi
  %46 = trunc nuw i64 %.pre16.pre-phi to i32
  %47 = xor i32 %46, -1
  %48 = and i32 %.pre11, %47
  store i32 %48, ptr %45, align 4
  %49 = load ptr, ptr %0, align 8
  %50 = getelementptr inbounds i32, ptr %49, i64 %.011.lcssa.i.ph
  store i32 0, ptr %50, align 4
  %51 = getelementptr inbounds i8, ptr %0, i64 32
  %52 = load i32, ptr %51, align 8
  %53 = add i32 %52, -1
  store i32 %53, ptr %51, align 8
  br label %cli_hashset_search.exit.thread

cli_hashset_search.exit.thread:                   ; preds = %2, %cli_hashset_search.exit, %44
  %.0 = phi i32 [ 0, %44 ], [ 34, %cli_hashset_search.exit ], [ 34, %2 ]
  ret i32 %.0
}